; Function Attrs: mustprogress uwtable
define internal fastcc void @_ZN6google8protobuf12_GLOBAL__N_126ReportReflectionUsageErrorEPKNS0_10DescriptorEPKNS0_15FieldDescriptorEPKcS9_(ptr noundef readonly captures(none) %0, ptr noundef readonly captures(none) %1, ptr noundef %2, ptr noundef %3) unnamed_addr #3 personality ptr @__gxx_personality_v0 {
  %5 = alloca %"class.google::protobuf::internal::LogMessage", align 8
  %6 = alloca %"class.google::protobuf::internal::LogFinisher", align 1
  call void @llvm.lifetime.start.p0(i64 56, ptr nonnull %5) #25
  call void @_ZN6google8protobuf8internal10LogMessageC1ENS0_8LogLevelEPKci(ptr noundef nonnull align 8 dereferenceable(56) %5, i32 noundef 3, ptr noundef nonnull @.str, i32 noundef 127)
  %7 = invoke noundef nonnull align 8 dereferenceable(56) ptr @_ZN6google8protobuf8internal10LogMessagelsEPKc(ptr noundef nonnull align 8 dereferenceable(56) %5, ptr noundef nonnull @.str.106)
          to label %8 unwind label %30

8:                                                ; preds = %4
  %9 = invoke noundef nonnull align 8 dereferenceable(56) ptr @_ZN6google8protobuf8internal10LogMessagelsEPKc(ptr noundef nonnull align 8 dereferenceable(56) %7, ptr noundef %2)
          to label %10 unwind label %30

10:                                               ; preds = %8
  %11 = invoke noundef nonnull align 8 dereferenceable(56) ptr @_ZN6google8protobuf8internal10LogMessagelsEPKc(ptr noundef nonnull align 8 dereferenceable(56) %9, ptr noundef nonnull @.str.107)
          to label %12 unwind label %30

12:                                               ; preds = %10
  %13 = getelementptr inbounds nuw i8, ptr %0, i64 8
  %14 = load ptr, ptr %13, align 8, !tbaa !128
  %15 = getelementptr inbounds nuw i8, ptr %14, i64 32
  %16 = invoke noundef nonnull align 8 dereferenceable(56) ptr @_ZN6google8protobuf8internal10LogMessagelsERKNSt7__cxx1112basic_stringIcSt11char_traitsIcESaIcEEE(ptr noundef nonnull align 8 dereferenceable(56) %11, ptr noundef nonnull align 8 dereferenceable(32) %15)
          to label %17 unwind label %30

17:                                               ; preds = %12
  %18 = invoke noundef nonnull align 8 dereferenceable(56) ptr @_ZN6google8protobuf8internal10LogMessagelsEPKc(ptr noundef nonnull align 8 dereferenceable(56) %16, ptr noundef nonnull @.str.108)
          to label %19 unwind label %30

19:                                               ; preds = %17
  %20 = getelementptr inbounds nuw i8, ptr %1, i64 8
  %21 = load ptr, ptr %20, align 8, !tbaa !190
  %22 = getelementptr inbounds nuw i8, ptr %21, i64 32
  %23 = invoke noundef nonnull align 8 dereferenceable(56) ptr @_ZN6google8protobuf8internal10LogMessagelsERKNSt7__cxx1112basic_stringIcSt11char_traitsIcESaIcEEE(ptr noundef nonnull align 8 dereferenceable(56) %18, ptr noundef nonnull align 8 dereferenceable(32) %22)
          to label %24 unwind label %30

24:                                               ; preds = %19
  %25 = invoke noundef nonnull align 8 dereferenceable(56) ptr @_ZN6google8protobuf8internal10LogMessagelsEPKc(ptr noundef nonnull align 8 dereferenceable(56) %23, ptr noundef nonnull @.str.109)
          to label %26 unwind label %30

26:                                               ; preds = %24
  %27 = invoke noundef nonnull align 8 dereferenceable(56) ptr @_ZN6google8protobuf8internal10LogMessagelsEPKc(ptr noundef nonnull align 8 dereferenceable(56) %25, ptr noundef %3)
          to label %28 unwind label %30

28:                                               ; preds = %26
  call void @llvm.lifetime.start.p0(i64 1, ptr nonnull %6) #25
  invoke void @_ZN6google8protobuf8internal11LogFinisheraSERNS1_10LogMessageE(ptr noundef nonnull align 1 dereferenceable(1) %6, ptr noundef nonnull align 8 dereferenceable(56) %27)
          to label %29 unwind label %32

29:                                               ; preds = %28
  call void @llvm.lifetime.end.p0(i64 1, ptr nonnull %6) #25
  call void @_ZN6google8protobuf8internal10LogMessageD1Ev(ptr noundef nonnull align 8 dereferenceable(56) %5) #25
  call void @llvm.lifetime.end.p0(i64 56, ptr nonnull %5) #25
  ret void

30:                                               ; preds = %26, %24, %19, %17, %12, %10, %8, %4
  %31 = landingpad { ptr, i32 }
          cleanup
  br label %34

32:                                               ; preds = %28
  %33 = landingpad { ptr, i32 }
          cleanup
  call void @llvm.lifetime.end.p0(i64 1, ptr nonnull %6) #25
  br label %34

34:                                               ; preds = %32, %30
  %.pn = phi { ptr, i32 } [ %33, %32 ], [ %31, %30 ]
  call void @_ZN6google8protobuf8internal10LogMessageD1Ev(ptr noundef nonnull align 8 dereferenceable(56) %5) #25
  call void @llvm.lifetime.end.p0(i64 56, ptr nonnull %5) #25
  resume { ptr, i32 } %.pn
}